; Function Attrs: null_pointer_is_valid sspstrong uwtable
define internal i32 @dissect_ProtocolIEFieldValue(ptr noundef %0, ptr noundef %1, ptr noundef %2, ptr readnone captures(none) %3) #0 {
  %5 = getelementptr inbounds nuw i8, ptr %1, i64 408
  %6 = load ptr, ptr %5, align 8
  %7 = load i32, ptr @proto_nbap, align 4
  %8 = tail call ptr @p_get_proto_data(ptr noundef %6, ptr noundef %1, i32 noundef %7, i32 noundef 0)
  %9 = icmp eq ptr %8, null
  br i1 %9, label %10, label %nbap_get_private_data.exit

10:                                               ; preds = %4
  %11 = load ptr, ptr %5, align 8
  %12 = tail call noalias dereferenceable_or_null(268056) ptr @wmem_alloc0(ptr noundef %11, i64 noundef 268056) #10
  %13 = load ptr, ptr %5, align 8
  %14 = load i32, ptr @proto_nbap, align 4
  tail call void @p_add_proto_data(ptr noundef %13, ptr noundef %1, i32 noundef %14, i32 noundef 0, ptr noundef %12)
  %15 = getelementptr inbounds nuw i8, ptr %12, i64 68
  store i32 3, ptr %15, align 4
  %16 = getelementptr inbounds nuw i8, ptr %12, i64 108
  store i8 0, ptr %16, align 4
  %17 = getelementptr inbounds nuw i8, ptr %12, i64 12
  store i32 65535, ptr %17, align 4
  %18 = getelementptr inbounds nuw i8, ptr %12, i64 40
  store i32 65535, ptr %18, align 8
  %19 = getelementptr inbounds nuw i8, ptr %12, i64 109
  store i8 2, ptr %19, align 1
  %20 = getelementptr i8, ptr %12, i64 267508
  br label %21

21:                                               ; preds = %21, %10
  %indvars.iv.i = phi i64 [ 0, %10 ], [ %indvars.iv.next.i, %21 ]
  %.idx.i = mul nuw nsw i64 %indvars.iv.i, 40
  %22 = getelementptr i8, ptr %20, i64 %.idx.i
  store i8 1, ptr %22, align 4
  %indvars.iv.next.i = add nuw nsw i64 %indvars.iv.i, 1
  %exitcond.not.i = icmp eq i64 %indvars.iv.next.i, 8
  br i1 %exitcond.not.i, label %nbap_get_private_data.exit, label %21, !llvm.loop !9

nbap_get_private_data.exit:                       ; preds = %21, %4
  %.0.i = phi ptr [ %8, %4 ], [ %12, %21 ]
  %23 = getelementptr inbounds nuw i8, ptr %.0.i, i64 36
  %24 = load i32, ptr %23, align 4
  %25 = load ptr, ptr @nbap_ies_dissector_table, align 8
  %26 = tail call i32 @dissector_try_uint_with_data(ptr noundef %25, i32 noundef %24, ptr noundef %0, ptr noundef %1, ptr noundef %2, i1 noundef zeroext false, ptr noundef null)
  %.not = icmp eq i32 %26, 0
  br i1 %.not, label %29, label %27

27:                                               ; preds = %nbap_get_private_data.exit
  %28 = tail call i32 @tvb_captured_length(ptr noundef %0)
  br label %29

29:                                               ; preds = %nbap_get_private_data.exit, %27
  %30 = phi i32 [ %28, %27 ], [ 0, %nbap_get_private_data.exit ]
  ret i32 %30
}